(lp1
(dp2
I3
ccopy_reg
_reconstructor
p3
(cmeeplib
Thread
p4
c__builtin__
object
p5
NtRp6
(dp7
S'posts'
p8
(dp9
I1
g3
(cmeeplib
Message
p10
g5
NtRp11
(dp12
S'post'
p13
S'Kittens are pretty awesome'
p14
sS'id'
p15
I1
sS'author'
p16
g3
(cmeeplib
User
p17
g5
NtRp18
(dp19
S'username'
p20
S'test'
p21
sS'password'
p22
S'foo'
p23
sg15
I16
sbsbsI2
g3
(g10
g5
NtRp24
(dp25
g13
S'Kittens are pretty awesome'
p26
sg15
I2
sg16
g3
(g17
g5
NtRp27
(dp28
g20
S'test'
p29
sg22
S'foo'
p30
sg15
I23
sbsbssg15
I3
sS'title'
p31
S'foo'
p32
sbsI4
g3
(g4
g5
NtRp33
(dp34
g8
(dp35
I0
g3
(g10
g5
NtRp36
(dp37
g13
S'this is my message'
p38
sg15
I0
sg16
g3
(g17
g5
NtRp39
(dp40
g20
S'test'
p41
sg22
S'foo'
p42
sg15
I11
sbsbssg15
I4
sg31
S'test title FOO'
p43
sbsI5
g3
(g4
g5
NtRp44
(dp45
g8
(dp46
I0
g3
(g10
g5
NtRp47
(dp48
g13
S'KITTENS!'
p49
sg15
I0
sg16
g18
sbssg15
I5
sg31
S'foo'
p50
sbsI6
g3
(g4
g5
NtRp51
(dp52
g8
(dp53
I0
g3
(g10
g5
NtRp54
(dp55
g13
S'this is my message'
p56
sg15
I0
sg16
g3
(g17
g5
NtRp57
(dp58
g20
S'test'
p59
sg22
S'foo'
p60
sg15
I18
sbsbssg15
I6
sg31
S'test title FOO'
p61
sbsI7
g3
(g4
g5
NtRp62
(dp63
g8
(dp64
I0
g3
(g10
g5
NtRp65
(dp66
g13
S'KITTENS!'
p67
sg15
I0
sg16
g27
sbssg15
I7
sg31
S'foo'
p68
sbsI8
g3
(g4
g5
NtRp69
(dp70
g8
(dp71
I0
g3
(g10
g5
NtRp72
(dp73
g13
S'this is my message'
p74
sg15
I0
sg16
g3
(g17
g5
NtRp75
(dp76
g20
S'test'
p77
sg22
S'foo'
p78
sg15
I25
sbsbssg15
I8
sg31
S'test title FOO'
p79
sbsa(dp80
I0
g3
(g17
g5
NtRp81
(dp82
g20
S'test'
p83
sg22
S'foo'
p84
sg15
I0
sbsI1
g3
(g17
g5
NtRp85
(dp86
g20
S'f'
sg22
S'a'
sg15
I1
sbsI2
g3
(g17
g5
NtRp87
(dp88
g20
S'test'
p89
sg22
S'foo'
p90
sg15
I2
sbsI3
g3
(g17
g5
NtRp91
(dp92
g20
S'test'
p93
sg22
S'foo'
p94
sg15
I3
sbsI4
g3
(g17
g5
NtRp95
(dp96
g20
S'george'
p97
sg22
S'foo'
p98
sg15
I4
sbsI5
g3
(g17
g5
NtRp99
(dp100
g20
S'george'
p101
sg22
S'foo'
p102
sg15
I5
sbsI6
g3
(g17
g5
NtRp103
(dp104
g20
S'test'
p105
sg22
S'foo'
p106
sg15
I6
sbsI7
g3
(g17
g5
NtRp107
(dp108
g20
S'test'
p109
sg22
S'foo'
p110
sg15
I7
sbsI8
g3
(g17
g5
NtRp111
(dp112
g20
S'test'
p113
sg22
S'foo'
p114
sg15
I8
sbsI9
g3
(g17
g5
NtRp115
(dp116
g20
S'test'
p117
sg22
S'foo'
p118
sg15
I9
sbsI10
g3
(g17
g5
NtRp119
(dp120
g20
S'test'
p121
sg22
S'foo'
p122
sg15
I10
sbsI11
g39
sI12
g3
(g17
g5
NtRp123
(dp124
g20
S'george'
p125
sg22
S'foo'
p126
sg15
I12
sbsI13
g3
(g17
g5
NtRp127
(dp128
g20
S'george'
p129
sg22
S'foo'
p130
sg15
I13
sbsI14
g3
(g17
g5
NtRp131
(dp132
g20
S'test'
p133
sg22
S'foo'
p134
sg15
I14
sbsI15
g3
(g17
g5
NtRp135
(dp136
g20
S'test'
p137
sg22
S'foo'
p138
sg15
I15
sbsI16
g18
sI17
g3
(g17
g5
NtRp139
(dp140
g20
S'test'
p141
sg22
S'foo'
p142
sg15
I17
sbsI18
g57
sI19
g3
(g17
g5
NtRp143
(dp144
g20
S'george'
p145
sg22
S'foo'
p146
sg15
I19
sbsI20
g3
(g17
g5
NtRp147
(dp148
g20
S'george'
p149
sg22
S'foo'
p150
sg15
I20
sbsI21
g3
(g17
g5
NtRp151
(dp152
g20
S'test'
p153
sg22
S'foo'
p154
sg15
I21
sbsI22
g3
(g17
g5
NtRp155
(dp156
g20
S'test'
p157
sg22
S'foo'
p158
sg15
I22
sbsI23
g27
sI24
g3
(g17
g5
NtRp159
(dp160
g20
S'test'
p161
sg22
S'foo'
p162
sg15
I24
sbsI25
g75
sI26
g3
(g17
g5
NtRp163
(dp164
g20
S'george'
p165
sg22
S'foo'
p166
sg15
I26
sbsa(dp167
g83
g75
sg97
g163
sS'f'
g85
sa.