((dp1
I0
ccopy_reg
_reconstructor
p2
(cmeeplib
Thread
p3
c__builtin__
object
p4
NtRp5
(dp6
S'posts'
p7
(dp8
I0
g2
(cmeeplib
Message
p9
g4
NtRp10
(dp11
S'post'
p12
S'WORDS'
p13
sS'id'
p14
I0
sS'author'
p15
g2
(cmeeplib
User
p16
g4
NtRp17
(dp18
S'username'
p19
S'george'
p20
sS'password'
p21
S'foo'
p22
sg14
I2
sbsbssg14
I0
sS'title'
p23
S'Blah'
p24
sbs(dp25
I0
g2
(g16
g4
NtRp26
(dp27
g19
S'george'
p28
sg21
S'foo'
p29
sg14
I0
sbsI1
g2
(g16
g4
NtRp30
(dp31
g19
S'george'
p32
sg21
S'foo'
p33
sg14
I1
sbsI2
g17
sI3
g2
(g16
g4
NtRp34
(dp35
g19
S'bob'
p36
sg21
S'test'
p37
sg14
I3
sbs(dp38
g36
g34
sg28
g17
stp39
.