((dp1
I1
ccopy_reg
_reconstructor
p2
(cmeeplib
Thread
p3
c__builtin__
object
p4
NtRp5
(dp6
S'posts'
p7
(dp8
I0
g2
(cmeeplib
Message
p9
g4
NtRp10
(dp11
S'post'
p12
S"I'm George!"
p13
sS'id'
p14
I0
sS'author'
p15
g2
(cmeeplib
User
p16
g4
NtRp17
(dp18
S'username'
p19
S'george'
p20
sS'password'
p21
S'foo'
p22
sg14
I6
sbsbssg14
I1
sS'title'
p23
S'first post'
p24
sbsI3
g2
(g3
g4
NtRp25
(dp26
g7
(dp27
I0
g2
(g9
g4
NtRp28
(dp29
g12
S'blah'
p30
sg14
I0
sg15
g2
(g16
g4
NtRp31
(dp32
g19
S'bob'
p33
sg21
S'test'
p34
sg14
I7
sbsbssg14
I3
sg23
S'blah'
p35
sbsI4
g2
(g3
g4
NtRp36
(dp37
g7
(dp38
I1
g2
(g9
g4
NtRp39
(dp40
g12
S'But I thought I was George?'
p41
sg14
I1
sg15
g2
(g16
g4
NtRp42
(dp43
g19
S'george'
p44
sg21
S'foo'
p45
sg14
I9
sbsbssg14
I4
sg23
S"I'm George"
p46
sbsI5
g2
(g3
g4
NtRp47
(dp48
g7
(dp49
I0
g2
(g9
g4
NtRp50
(dp51
g12
S'djlfajfl'
p52
sg14
I0
sg15
g2
(g16
g4
NtRp53
(dp54
g19
S'george'
p55
sg21
S'foo'
p56
sg14
I10
sbsbsI1
g2
(g9
g4
NtRp57
(dp58
g12
S'I made a message!'
p59
sg14
I1
sg15
g53
sbssg14
I5
sg23
S'fkdjaflkj'
p60
sbsI6
g2
(g3
g4
NtRp61
(dp62
g7
(dp63
I0
g2
(g9
g4
NtRp64
(dp65
g12
S'ta da'
p66
sg14
I0
sg15
g53
sbssg14
I6
sg23
S'lala'
p67
sbsI7
g2
(g3
g4
NtRp68
(dp69
g7
(dp70
I0
g2
(g9
g4
NtRp71
(dp72
g12
S'message'
p73
sg14
I0
sg15
g53
sbssg14
I7
sg23
S'title'
p74
sbsI8
g2
(g3
g4
NtRp75
(dp76
g7
(dp77
I0
g2
(g9
g4
NtRp78
(dp79
g12
S'message'
p80
sg14
I0
sg15
g53
sbssg14
I8
sg23
S'title'
p81
sbs(dp82
I0
g2
(g16
g4
NtRp83
(dp84
g19
S'george'
p85
sg21
S'foo'
p86
sg14
I0
sbsI1
g2
(g16
g4
NtRp87
(dp88
g19
S'george'
p89
sg21
S'foo'
p90
sg14
I1
sbsI2
g2
(g16
g4
NtRp91
(dp92
g19
S'george'
p93
sg21
S'foo'
p94
sg14
I2
sbsI3
g2
(g16
g4
NtRp95
(dp96
g19
S'bob'
p97
sg21
S'test'
p98
sg14
I3
sbsI4
g2
(g16
g4
NtRp99
(dp100
g19
S'george'
p101
sg21
S'foo'
p102
sg14
I4
sbsI5
g2
(g16
g4
NtRp103
(dp104
g19
S'bob'
p105
sg21
S'test'
p106
sg14
I5
sbsI6
g17
sI7
g31
sI8
g2
(g16
g4
NtRp107
(dp108
g19
S'george'
p109
sg21
S'foo'
p110
sg14
I8
sbsI9
g42
sI10
g53
s(dp111
g97
g31
sg85
g53
stp112
.