(lp1
(dp2
I0
ccopy_reg
_reconstructor
p3
(cmeeplib
Thread
p4
c__builtin__
object
p5
NtRp6
(dp7
S'posts'
p8
(dp9
I0
g3
(cmeeplib
Message
p10
g5
NtRp11
(dp12
S'post'
p13
S'This is my message!'
p14
sS'id'
p15
I0
sS'author'
p16
g3
(cmeeplib
User
p17
g5
NtRp18
(dp19
S'username'
p20
S'test'
p21
sS'password'
p22
S'foo'
p23
sg15
I0
sbsbssg15
I0
sS'title'
p24
S'Test Thread'
p25
sbsa(dp26
I0
g18
sI1
g3
(g17
g5
NtRp27
(dp28
g20
S'f'
sg22
S'a'
sg15
I1
sbsa(dp29
g21
g18
sS'f'
g27
sa.