((dp1
I0
ccopy_reg
_reconstructor
p2
(cmeeplib
Message
p3
c__builtin__
object
p4
NtRp5
(dp6
S'parent'
p7
I-1
sS'author'
p8
g2
(cmeeplib
User
p9
g4
NtRp10
(dp11
S'username'
p12
S'meep'
p13
sS'password'
p14
S'x'
sS'id'
p15
I5
sbsS'title'
p16
S'test message'
p17
sS'child'
p18
(lp19
I1
asS'post'
p20
S'greetings'
p21
sg15
I0
sbsI1
g2
(g3
g4
NtRp22
(dp23
g7
I0
sg8
g10
sg16
S'user replied to message test message'
p24
sg18
I-1
sg20
S'look, i can reply!'
p25
sg15
I1
sbsI2
g2
(g3
g4
NtRp26
(dp27
g7
I-1
sg8
g10
sg16
S'second message'
p28
sg18
(lp29
I3
asg20
S'hello again'
p30
sg15
I2
sbsI3
g2
(g3
g4
NtRp31
(dp32
g7
I2
sg8
g2
(g9
g4
NtRp33
(dp34
g12
S'cait'
p35
sg14
S'hi'
p36
sg15
I8
sbsg16
S'user replied to message second message'
p37
sg18
I-1
sg20
S"hi, meep. it's cait. :]"
p38
sg15
I3
sbsI4
g2
(g3
g4
NtRp39
(dp40
g7
I-1
sg8
g2
(g9
g4
NtRp41
(dp42
g12
S'cait'
p43
sg14
S'test'
p44
sg15
I10
sbsg16
S'hello'
p45
sg18
(lp46
sg20
S'test1'
p47
sg15
I4
sbs(dp48
I0
g2
(g9
g4
NtRp49
(dp50
g12
S'cait'
p51
sg14
S'hi'
p52
sg15
I0
sbsI1
g2
(g9
g4
NtRp53
(dp54
g12
S'blake'
p55
sg14
S'lol'
p56
sg15
I1
sbsI2
g2
(g9
g4
NtRp57
(dp58
g12
S'cait'
p59
sg14
S'hi'
p60
sg15
I2
sbsI3
g2
(g9
g4
NtRp61
(dp62
g12
S'cait'
p63
sg14
S'hi'
p64
sg15
I3
sbsI4
g2
(g9
g4
NtRp65
(dp66
g12
S'meep'
p67
sg14
S'x'
sg15
I4
sbsI5
g10
sI6
g2
(g9
g4
NtRp68
(dp69
g12
S'cait'
p70
sg14
S'hi'
p71
sg15
I6
sbsI7
g2
(g9
g4
NtRp72
(dp73
g12
S'cait'
p74
sg14
S'hi'
p75
sg15
I7
sbsI8
g33
sI9
g2
(g9
g4
NtRp76
(dp77
g12
S'cait'
p78
sg14
S'test'
p79
sg15
I9
sbsI10
g41
s(dp80
g55
g53
sg51
g41
sg67
g10
stp81
.