((dp1
I0
ccopy_reg
_reconstructor
p2
(cmeeplib
Message
p3
c__builtin__
object
p4
NtRp5
(dp6
S'parent'
p7
I-1
sS'author'
p8
g2
(cmeeplib
User
p9
g4
NtRp10
(dp11
S'username'
p12
S'cait'
p13
sS'password'
p14
S'hi'
p15
sS'id'
p16
I2
sbsS'title'
p17
S'lol'
p18
sS'child'
p19
(lp20
sS'post'
p21
S'lolool'
p22
sg16
I0
sbsI1
g2
(g3
g4
NtRp23
(dp24
g7
I-1
sg8
g2
(g9
g4
NtRp25
(dp26
g12
S'cait'
p27
sg14
S'hi'
p28
sg16
I3
sbsg17
S'sadkfj'
p29
sg19
(lp30
I2
asg21
S'alskdfj'
p31
sg16
I1
sbsI2
g2
(g3
g4
NtRp32
(dp33
g7
I1
sg8
g25
sg17
S'user replied to message sadkfj'
p34
sg19
I-1
sg21
S'asdfkljsalkdfj'
p35
sg16
I2
sbs(dp36
I0
g2
(g9
g4
NtRp37
(dp38
g12
S'cait'
p39
sg14
S'hi'
p40
sg16
I0
sbsI1
g2
(g9
g4
NtRp41
(dp42
g12
S'blake'
p43
sg14
S'lol'
p44
sg16
I1
sbsI2
g10
sI3
g25
s(dp45
g43
g41
sg39
g25
stp46
.