((dp1
I1
ccopy_reg
_reconstructor
p2
(cmeeplib
Thread
p3
c__builtin__
object
p4
NtRp5
(dp6
S'posts'
p7
(dp8
I0
g2
(cmeeplib
Message
p9
g4
NtRp10
(dp11
S'post'
p12
S"I'm George!"
p13
sS'id'
p14
I0
sS'author'
p15
g2
(cmeeplib
User
p16
g4
NtRp17
(dp18
S'username'
p19
S'george'
p20
sS'password'
p21
S'foo'
p22
sg14
I6
sbsbssg14
I1
sS'title'
p23
S'first post'
p24
sbsI3
g2
(g3
g4
NtRp25
(dp26
g7
(dp27
I0
g2
(g9
g4
NtRp28
(dp29
g12
S'blah'
p30
sg14
I0
sg15
g2
(g16
g4
NtRp31
(dp32
g19
S'bob'
p33
sg21
S'test'
p34
sg14
I7
sbsbssg14
I3
sg23
S'blah'
p35
sbsI4
g2
(g3
g4
NtRp36
(dp37
g7
(dp38
I1
g2
(g9
g4
NtRp39
(dp40
g12
S'But I thought I was George?'
p41
sg14
I1
sg15
g2
(g16
g4
NtRp42
(dp43
g19
S'george'
p44
sg21
S'foo'
p45
sg14
I9
sbsbssg14
I4
sg23
S"I'm George"
p46
sbsI5
g2
(g3
g4
NtRp47
(dp48
g7
(dp49
I0
g2
(g9
g4
NtRp50
(dp51
g12
S'djlfajfl'
p52
sg14
I0
sg15
g2
(g16
g4
NtRp53
(dp54
g19
S'george'
p55
sg21
S'foo'
p56
sg14
I10
sbsbsI1
g2
(g9
g4
NtRp57
(dp58
g12
S'I made a message!'
p59
sg14
I1
sg15
g53
sbssg14
I5
sg23
S'fkdjaflkj'
p60
sbsI6
g2
(g3
g4
NtRp61
(dp62
g7
(dp63
I0
g2
(g9
g4
NtRp64
(dp65
g12
S'ta da'
p66
sg14
I0
sg15
g53
sbssg14
I6
sg23
S'lala'
p67
sbs(dp68
I0
g2
(g16
g4
NtRp69
(dp70
g19
S'george'
p71
sg21
S'foo'
p72
sg14
I0
sbsI1
g2
(g16
g4
NtRp73
(dp74
g19
S'george'
p75
sg21
S'foo'
p76
sg14
I1
sbsI2
g2
(g16
g4
NtRp77
(dp78
g19
S'george'
p79
sg21
S'foo'
p80
sg14
I2
sbsI3
g2
(g16
g4
NtRp81
(dp82
g19
S'bob'
p83
sg21
S'test'
p84
sg14
I3
sbsI4
g2
(g16
g4
NtRp85
(dp86
g19
S'george'
p87
sg21
S'foo'
p88
sg14
I4
sbsI5
g2
(g16
g4
NtRp89
(dp90
g19
S'bob'
p91
sg21
S'test'
p92
sg14
I5
sbsI6
g17
sI7
g31
sI8
g2
(g16
g4
NtRp93
(dp94
g19
S'george'
p95
sg21
S'foo'
p96
sg14
I8
sbsI9
g42
sI10
g53
s(dp97
g83
g31
sg71
g53
stp98
.