((dp1
I0
ccopy_reg
_reconstructor
p2
(cmeeplib
Message
p3
c__builtin__
object
p4
NtRp5
(dp6
S'parent'
p7
I-1
sS'author'
p8
g2
(cmeeplib
User
p9
g4
NtRp10
(dp11
S'username'
p12
S'meep'
p13
sS'password'
p14
S'x'
sS'id'
p15
I5
sbsS'title'
p16
S'test message'
p17
sS'child'
p18
(lp19
I1
asS'post'
p20
S'greetings'
p21
sg15
I0
sbsI1
g2
(g3
g4
NtRp22
(dp23
g7
I0
sg8
g10
sg16
S'user replied to message test message'
p24
sg18
I-1
sg20
S'look, i can reply!'
p25
sg15
I1
sbsI2
g2
(g3
g4
NtRp26
(dp27
g7
I-1
sg8
g10
sg16
S'second message'
p28
sg18
(lp29
I3
asg20
S'hello again'
p30
sg15
I2
sbsI3
g2
(g3
g4
NtRp31
(dp32
g7
I2
sg8
g2
(g9
g4
NtRp33
(dp34
g12
S'cait'
p35
sg14
S'hi'
p36
sg15
I8
sbsg16
S'user replied to message second message'
p37
sg18
I-1
sg20
S"hi, meep. it's cait. :]"
p38
sg15
I3
sbs(dp39
I0
g2
(g9
g4
NtRp40
(dp41
g12
S'cait'
p42
sg14
S'hi'
p43
sg15
I0
sbsI1
g2
(g9
g4
NtRp44
(dp45
g12
S'blake'
p46
sg14
S'lol'
p47
sg15
I1
sbsI2
g2
(g9
g4
NtRp48
(dp49
g12
S'cait'
p50
sg14
S'hi'
p51
sg15
I2
sbsI3
g2
(g9
g4
NtRp52
(dp53
g12
S'cait'
p54
sg14
S'hi'
p55
sg15
I3
sbsI4
g2
(g9
g4
NtRp56
(dp57
g12
S'meep'
p58
sg14
S'x'
sg15
I4
sbsI5
g10
sI6
g2
(g9
g4
NtRp59
(dp60
g12
S'cait'
p61
sg14
S'hi'
p62
sg15
I6
sbsI7
g2
(g9
g4
NtRp63
(dp64
g12
S'cait'
p65
sg14
S'hi'
p66
sg15
I7
sbsI8
g33
s(dp67
g46
g44
sg42
g33
sg58
g10
stp68
.