ccopy_reg
_reconstructor
p0
(cmeeplib
Message
p1
c__builtin__
object
p2
Ntp3
Rp4
(dp5
S'parent'
p6
I-1
sS'author'
p7
g0
(cmeeplib
User
p8
g2
Ntp9
Rp10
(dp11
S'username'
p12
S'new'
p13
sS'password'
p14
S'test'
p15
sS'id'
p16
I1
sbsS'title'
p17
S'cait'
p18
sS'child'
p19
(lp20
sS'post'
p21
S'please save!'
p22
sg16
I1
sb.