ccopy_reg
_reconstructor
p0
(cmeeplib
Message
p1
c__builtin__
object
p2
Ntp3
Rp4
(dp5
S'parent'
p6
I0
sS'author'
p7
g0
(cmeeplib
User
p8
g2
Ntp9
Rp10
(dp11
S'username'
p12
S'test'
p13
sS'password'
p14
S'foo'
p15
sS'id'
p16
I0
sbsS'title'
p17
S'user replied to message test title FOO'
p18
sS'child'
p19
I-1
sS'post'
p20
S'hello again'
p21
sg16
I1
sb.